target datalayout = "e-m:e-p270:32:32-p271:32:32-p272:64:64-i64:64-i128:128-f80:128-n8:16:32:64-S128"
target triple = "x86_64-pc-linux-gnu"

%struct.SubBand = type { i32, i32, i32, i32, i32, i32, i32, ptr, ptr, i32, ptr }

; Function Attrs: inlinehint nounwind uwtable
define internal i32 @divide3(i32 noundef %0) #6 {
  %2 = alloca i32, align 4
  store i32 %0, ptr %2, align 4, !tbaa !47
  %3 = load i32, ptr %2, align 4, !tbaa !47
  %4 = add i32 %3, 1
  %5 = mul i32 %4, 21845
  %6 = add i32 %5, 10922
  %7 = ashr i32 %6, 16
  ret i32 %7
}

; Function Attrs: inlinehint nounwind uwtable
define internal void @intra_dc_prediction_8(ptr noundef %0) #6 {
  %2 = alloca ptr, align 8
  %3 = alloca ptr, align 8
  %4 = alloca i32, align 4
  %5 = alloca i32, align 4
  %6 = alloca i32, align 4
  store ptr %0, ptr %2, align 8, !tbaa !221
  call void @llvm.lifetime.start.p0(i64 8, ptr %3) #12
  %7 = load ptr, ptr %2, align 8, !tbaa !221
  %8 = getelementptr inbounds nuw %struct.SubBand, ptr %7, i32 0, i32 7
  %9 = load ptr, ptr %8, align 8, !tbaa !225
  store ptr %9, ptr %3, align 8, !tbaa !177
  call void @llvm.lifetime.start.p0(i64 4, ptr %4) #12
  call void @llvm.lifetime.start.p0(i64 4, ptr %5) #12
  store i32 1, ptr %4, align 4, !tbaa !47
  br label %10

10:                                               ; preds = %32, %1
  %11 = load i32, ptr %4, align 4, !tbaa !47
  %12 = load ptr, ptr %2, align 8, !tbaa !221
  %13 = getelementptr inbounds nuw %struct.SubBand, ptr %12, i32 0, i32 3
  %14 = load i32, ptr %13, align 4, !tbaa !228
  %15 = icmp slt i32 %11, %14
  br i1 %15, label %16, label %35

16:                                               ; preds = %10
  %17 = load ptr, ptr %3, align 8, !tbaa !177
  %18 = load i32, ptr %4, align 4, !tbaa !47
  %19 = sub nsw i32 %18, 1
  %20 = sext i32 %19 to i64
  %21 = getelementptr inbounds i16, ptr %17, i64 %20
  %22 = load i16, ptr %21, align 2, !tbaa !100
  %23 = sext i16 %22 to i32
  %24 = load ptr, ptr %3, align 8, !tbaa !177
  %25 = load i32, ptr %4, align 4, !tbaa !47
  %26 = sext i32 %25 to i64
  %27 = getelementptr inbounds i16, ptr %24, i64 %26
  %28 = load i16, ptr %27, align 2, !tbaa !100
  %29 = sext i16 %28 to i32
  %30 = add nsw i32 %29, %23
  %31 = trunc i32 %30 to i16
  store i16 %31, ptr %27, align 2, !tbaa !100
  br label %32

32:                                               ; preds = %16
  %33 = load i32, ptr %4, align 4, !tbaa !47
  %34 = add nsw i32 %33, 1
  store i32 %34, ptr %4, align 4, !tbaa !47
  br label %10, !llvm.loop !304

35:                                               ; preds = %10
  %36 = load ptr, ptr %2, align 8, !tbaa !221
  %37 = getelementptr inbounds nuw %struct.SubBand, ptr %36, i32 0, i32 2
  %38 = load i32, ptr %37, align 8, !tbaa !227
  %39 = load ptr, ptr %2, align 8, !tbaa !221
  %40 = getelementptr inbounds nuw %struct.SubBand, ptr %39, i32 0, i32 5
  %41 = load i32, ptr %40, align 4, !tbaa !223
  %42 = add nsw i32 1, %41
  %43 = ashr i32 %38, %42
  %44 = load ptr, ptr %3, align 8, !tbaa !177
  %45 = sext i32 %43 to i64
  %46 = getelementptr inbounds i16, ptr %44, i64 %45
  store ptr %46, ptr %3, align 8, !tbaa !177
  store i32 1, ptr %5, align 4, !tbaa !47
  br label %47

47:                                               ; preds = %146, %35
  %48 = load i32, ptr %5, align 4, !tbaa !47
  %49 = load ptr, ptr %2, align 8, !tbaa !221
  %50 = getelementptr inbounds nuw %struct.SubBand, ptr %49, i32 0, i32 4
  %51 = load i32, ptr %50, align 8, !tbaa !229
  %52 = icmp slt i32 %48, %51
  br i1 %52, label %53, label %149

53:                                               ; preds = %47
  %54 = load ptr, ptr %3, align 8, !tbaa !177
  %55 = load ptr, ptr %2, align 8, !tbaa !221
  %56 = getelementptr inbounds nuw %struct.SubBand, ptr %55, i32 0, i32 2
  %57 = load i32, ptr %56, align 8, !tbaa !227
  %58 = load ptr, ptr %2, align 8, !tbaa !221
  %59 = getelementptr inbounds nuw %struct.SubBand, ptr %58, i32 0, i32 5
  %60 = load i32, ptr %59, align 4, !tbaa !223
  %61 = add nsw i32 1, %60
  %62 = ashr i32 %57, %61
  %63 = sub nsw i32 0, %62
  %64 = sext i32 %63 to i64
  %65 = getelementptr inbounds i16, ptr %54, i64 %64
  %66 = load i16, ptr %65, align 2, !tbaa !100
  %67 = sext i16 %66 to i32
  %68 = load ptr, ptr %3, align 8, !tbaa !177
  %69 = getelementptr inbounds i16, ptr %68, i64 0
  %70 = load i16, ptr %69, align 2, !tbaa !100
  %71 = sext i16 %70 to i32
  %72 = add nsw i32 %71, %67
  %73 = trunc i32 %72 to i16
  store i16 %73, ptr %69, align 2, !tbaa !100
  store i32 1, ptr %4, align 4, !tbaa !47
  br label %74

74:                                               ; preds = %131, %53
  %75 = load i32, ptr %4, align 4, !tbaa !47
  %76 = load ptr, ptr %2, align 8, !tbaa !221
  %77 = getelementptr inbounds nuw %struct.SubBand, ptr %76, i32 0, i32 3
  %78 = load i32, ptr %77, align 4, !tbaa !228
  %79 = icmp slt i32 %75, %78
  br i1 %79, label %80, label %134

80:                                               ; preds = %74
  call void @llvm.lifetime.start.p0(i64 4, ptr %6) #12
  %81 = load ptr, ptr %3, align 8, !tbaa !177
  %82 = load i32, ptr %4, align 4, !tbaa !47
  %83 = sub nsw i32 %82, 1
  %84 = sext i32 %83 to i64
  %85 = getelementptr inbounds i16, ptr %81, i64 %84
  %86 = load i16, ptr %85, align 2, !tbaa !100
  %87 = sext i16 %86 to i32
  %88 = load ptr, ptr %3, align 8, !tbaa !177
  %89 = load i32, ptr %4, align 4, !tbaa !47
  %90 = load ptr, ptr %2, align 8, !tbaa !221
  %91 = getelementptr inbounds nuw %struct.SubBand, ptr %90, i32 0, i32 2
  %92 = load i32, ptr %91, align 8, !tbaa !227
  %93 = load ptr, ptr %2, align 8, !tbaa !221
  %94 = getelementptr inbounds nuw %struct.SubBand, ptr %93, i32 0, i32 5
  %95 = load i32, ptr %94, align 4, !tbaa !223
  %96 = add nsw i32 1, %95
  %97 = ashr i32 %92, %96
  %98 = sub nsw i32 %89, %97
  %99 = sext i32 %98 to i64
  %100 = getelementptr inbounds i16, ptr %88, i64 %99
  %101 = load i16, ptr %100, align 2, !tbaa !100
  %102 = sext i16 %101 to i32
  %103 = add nsw i32 %87, %102
  %104 = load ptr, ptr %3, align 8, !tbaa !177
  %105 = load i32, ptr %4, align 4, !tbaa !47
  %106 = load ptr, ptr %2, align 8, !tbaa !221
  %107 = getelementptr inbounds nuw %struct.SubBand, ptr %106, i32 0, i32 2
  %108 = load i32, ptr %107, align 8, !tbaa !227
  %109 = load ptr, ptr %2, align 8, !tbaa !221
  %110 = getelementptr inbounds nuw %struct.SubBand, ptr %109, i32 0, i32 5
  %111 = load i32, ptr %110, align 4, !tbaa !223
  %112 = add nsw i32 1, %111
  %113 = ashr i32 %108, %112
  %114 = sub nsw i32 %105, %113
  %115 = sub nsw i32 %114, 1
  %116 = sext i32 %115 to i64
  %117 = getelementptr inbounds i16, ptr %104, i64 %116
  %118 = load i16, ptr %117, align 2, !tbaa !100
  %119 = sext i16 %118 to i32
  %120 = add nsw i32 %103, %119
  store i32 %120, ptr %6, align 4, !tbaa !47
  %121 = load i32, ptr %6, align 4, !tbaa !47
  %122 = call i32 @divide3(i32 noundef %121)
  %123 = load ptr, ptr %3, align 8, !tbaa !177
  %124 = load i32, ptr %4, align 4, !tbaa !47
  %125 = sext i32 %124 to i64
  %126 = getelementptr inbounds i16, ptr %123, i64 %125
  %127 = load i16, ptr %126, align 2, !tbaa !100
  %128 = sext i16 %127 to i32
  %129 = add nsw i32 %128, %122
  %130 = trunc i32 %129 to i16
  store i16 %130, ptr %126, align 2, !tbaa !100
  call void @llvm.lifetime.end.p0(i64 4, ptr %6) #12
  br label %131

131:                                              ; preds = %80
  %132 = load i32, ptr %4, align 4, !tbaa !47
  %133 = add nsw i32 %132, 1
  store i32 %133, ptr %4, align 4, !tbaa !47
  br label %74, !llvm.loop !305

134:                                              ; preds = %74
  %135 = load ptr, ptr %2, align 8, !tbaa !221
  %136 = getelementptr inbounds nuw %struct.SubBand, ptr %135, i32 0, i32 2
  %137 = load i32, ptr %136, align 8, !tbaa !227
  %138 = load ptr, ptr %2, align 8, !tbaa !221
  %139 = getelementptr inbounds nuw %struct.SubBand, ptr %138, i32 0, i32 5
  %140 = load i32, ptr %139, align 4, !tbaa !223
  %141 = add nsw i32 1, %140
  %142 = ashr i32 %137, %141
  %143 = load ptr, ptr %3, align 8, !tbaa !177
  %144 = sext i32 %142 to i64
  %145 = getelementptr inbounds i16, ptr %143, i64 %144
  store ptr %145, ptr %3, align 8, !tbaa !177
  br label %146

146:                                              ; preds = %134
  %147 = load i32, ptr %5, align 4, !tbaa !47
  %148 = add nsw i32 %147, 1
  store i32 %148, ptr %5, align 4, !tbaa !47
  br label %47, !llvm.loop !306

149:                                              ; preds = %47
  call void @llvm.lifetime.end.p0(i64 4, ptr %5) #12
  call void @llvm.lifetime.end.p0(i64 4, ptr %4) #12
  call void @llvm.lifetime.end.p0(i64 8, ptr %3) #12
  ret void
}