; Function Attrs: inlinehint nofree norecurse nosync nounwind memory(readwrite, inaccessiblemem: none) uwtable
define internal fastcc void @intra_dc_prediction_8(ptr noundef readonly captures(none) %0) unnamed_addr #10 {
  %2 = getelementptr inbounds nuw i8, ptr %0, i64 32
  %3 = load ptr, ptr %2, align 8, !tbaa !218
  %4 = getelementptr inbounds nuw i8, ptr %0, i64 12
  %5 = load i32, ptr %4, align 4, !tbaa !221
  %6 = icmp sgt i32 %5, 1
  br i1 %6, label %.lr.ph.preheader, label %._crit_edge

.lr.ph.preheader:                                 ; preds = %1
  %wide.trip.count = zext nneg i32 %5 to i64
  %load_initial60 = load i16, ptr %3, align 2
  br label %.lr.ph

.lr.ph:                                           ; preds = %.lr.ph.preheader, %.lr.ph
  %store_forwarded61 = phi i16 [ %load_initial60, %.lr.ph.preheader ], [ %9, %.lr.ph ]
  %indvars.iv = phi i64 [ 1, %.lr.ph.preheader ], [ %indvars.iv.next, %.lr.ph ]
  %7 = getelementptr i16, ptr %3, i64 %indvars.iv
  %8 = load i16, ptr %7, align 2, !tbaa !95
  %9 = add i16 %8, %store_forwarded61
  store i16 %9, ptr %7, align 2, !tbaa !95
  %indvars.iv.next = add nuw nsw i64 %indvars.iv, 1
  %exitcond.not = icmp eq i64 %indvars.iv.next, %wide.trip.count
  br i1 %exitcond.not, label %._crit_edge, label %.lr.ph, !llvm.loop !289

._crit_edge:                                      ; preds = %.lr.ph, %1
  %10 = getelementptr inbounds nuw i8, ptr %0, i64 8
  %11 = load i32, ptr %10, align 8, !tbaa !220
  %12 = getelementptr inbounds nuw i8, ptr %0, i64 20
  %13 = load i32, ptr %12, align 4, !tbaa !215
  %14 = add nsw i32 %13, 1
  %15 = ashr i32 %11, %14
  %16 = sext i32 %15 to i64
  %17 = getelementptr inbounds nuw i8, ptr %0, i64 16
  %18 = load i32, ptr %17, align 8, !tbaa !222
  %19 = icmp sgt i32 %18, 1
  br i1 %19, label %.lr.ph47, label %._crit_edge48

.lr.ph47:                                         ; preds = %._crit_edge
  %.043 = getelementptr inbounds i16, ptr %3, i64 %16
  %20 = sub nsw i32 0, %15
  %21 = sext i32 %20 to i64
  br i1 %6, label %.lr.ph41.us.preheader, label %.lr.ph47.split

.lr.ph41.us.preheader:                            ; preds = %.lr.ph47
  %wide.trip.count55 = zext nneg i32 %5 to i64
  br label %.lr.ph41.us

.lr.ph41.us:                                      ; preds = %.lr.ph41.us.preheader, %._crit_edge42.us
  %.045.us = phi ptr [ %.0.us, %._crit_edge42.us ], [ %.043, %.lr.ph41.us.preheader ]
  %.03644.us = phi i32 [ %44, %._crit_edge42.us ], [ 1, %.lr.ph41.us.preheader ]
  %22 = getelementptr inbounds i16, ptr %.045.us, i64 %21
  %23 = load i16, ptr %22, align 2, !tbaa !95
  %24 = load i16, ptr %.045.us, align 2, !tbaa !95
  %25 = add i16 %24, %23
  store i16 %25, ptr %.045.us, align 2, !tbaa !95
  br label %26

26:                                               ; preds = %.lr.ph41.us, %26
  %store_forwarded = phi i16 [ %25, %.lr.ph41.us ], [ %43, %26 ]
  %indvars.iv52 = phi i64 [ 1, %.lr.ph41.us ], [ %indvars.iv.next53, %26 ]
  %27 = getelementptr i16, ptr %.045.us, i64 %indvars.iv52
  %28 = sext i16 %store_forwarded to i32
  %29 = sub nsw i64 %indvars.iv52, %16
  %30 = getelementptr inbounds i16, ptr %.045.us, i64 %29
  %31 = load i16, ptr %30, align 2, !tbaa !95
  %32 = sext i16 %31 to i32
  %33 = add nsw i32 %32, %28
  %34 = getelementptr i8, ptr %30, i64 -2
  %35 = load i16, ptr %34, align 2, !tbaa !95
  %36 = sext i16 %35 to i32
  %37 = add nsw i32 %33, %36
  %38 = mul nsw i32 %37, 21845
  %39 = add nsw i32 %38, 32767
  %40 = lshr i32 %39, 16
  %41 = load i16, ptr %27, align 2, !tbaa !95
  %42 = trunc nuw i32 %40 to i16
  %43 = add i16 %41, %42
  store i16 %43, ptr %27, align 2, !tbaa !95
  %indvars.iv.next53 = add nuw nsw i64 %indvars.iv52, 1
  %exitcond56.not = icmp eq i64 %indvars.iv.next53, %wide.trip.count55
  br i1 %exitcond56.not, label %._crit_edge42.us, label %26, !llvm.loop !290

._crit_edge42.us:                                 ; preds = %26
  %44 = add nuw nsw i32 %.03644.us, 1
  %.0.us = getelementptr inbounds i16, ptr %.045.us, i64 %16
  %exitcond57.not = icmp eq i32 %44, %18
  br i1 %exitcond57.not, label %._crit_edge48, label %.lr.ph41.us, !llvm.loop !291

.lr.ph47.split:                                   ; preds = %.lr.ph47, %.lr.ph47.split
  %.045 = phi ptr [ %.0, %.lr.ph47.split ], [ %.043, %.lr.ph47 ]
  %.03644 = phi i32 [ %49, %.lr.ph47.split ], [ 1, %.lr.ph47 ]
  %45 = getelementptr inbounds i16, ptr %.045, i64 %21
  %46 = load i16, ptr %45, align 2, !tbaa !95
  %47 = load i16, ptr %.045, align 2, !tbaa !95
  %48 = add i16 %47, %46
  store i16 %48, ptr %.045, align 2, !tbaa !95
  %49 = add nuw nsw i32 %.03644, 1
  %.0 = getelementptr inbounds i16, ptr %.045, i64 %16
  %exitcond51.not = icmp eq i32 %49, %18
  br i1 %exitcond51.not, label %._crit_edge48, label %.lr.ph47.split, !llvm.loop !291

._crit_edge48:                                    ; preds = %.lr.ph47.split, %._crit_edge42.us, %._crit_edge
  ret void
}